; Function Attrs: nounwind sspstrong uwtable
define internal noundef i64 @rb_p_write(i64 noundef %0) #0 {
  %2 = alloca [2 x i64], align 16
  call void @llvm.lifetime.start.p0(i64 16, ptr nonnull %2) #28
  store i64 %0, ptr %2, align 16, !tbaa !23
  %3 = load i64, ptr @rb_default_rs, align 8, !tbaa !23
  %4 = getelementptr inbounds nuw i8, ptr %2, i64 8
  store i64 %3, ptr %4, align 8, !tbaa !23
  %5 = tail call i64 @rb_ractor_stdout() #28
  %6 = icmp eq i64 %5, 0
  %7 = and i64 %5, 7
  %8 = icmp ne i64 %7, 0
  %9 = or i1 %6, %8
  br i1 %9, label %rbimpl_RB_TYPE_P_fastpath.exit.thread, label %rbimpl_RB_TYPE_P_fastpath.exit

rbimpl_RB_TYPE_P_fastpath.exit:                   ; preds = %1
  %10 = inttoptr i64 %5 to ptr
  %11 = load i64, ptr %10, align 8, !tbaa !25
  %12 = and i64 %11, 31
  %13 = icmp eq i64 %12, 11
  br i1 %13, label %rb_class_of.exit, label %rbimpl_RB_TYPE_P_fastpath.exit.thread

rb_class_of.exit:                                 ; preds = %rbimpl_RB_TYPE_P_fastpath.exit
  %14 = getelementptr inbounds nuw i8, ptr %10, i64 8
  %.0.i5 = load i64, ptr %14, align 8, !tbaa !23
  %15 = load i64, ptr @id_write, align 8, !tbaa !23
  %16 = tail call i32 @rb_method_basic_definition_p(i64 noundef %.0.i5, i64 noundef %15) #28
  %.not = icmp eq i32 %16, 0
  br i1 %.not, label %rbimpl_RB_TYPE_P_fastpath.exit.thread, label %17

17:                                               ; preds = %rb_class_of.exit
  %18 = call fastcc i64 @io_writev(i32 noundef 2, ptr noundef nonnull %2, i64 noundef %5)
  br label %20

rbimpl_RB_TYPE_P_fastpath.exit.thread:            ; preds = %1, %rb_class_of.exit, %rbimpl_RB_TYPE_P_fastpath.exit
  %19 = call fastcc i64 @rb_io_writev(i64 noundef %5, i32 noundef 2, ptr noundef nonnull %2)
  br label %20

20:                                               ; preds = %rbimpl_RB_TYPE_P_fastpath.exit.thread, %17
  call void @llvm.lifetime.end.p0(i64 16, ptr nonnull %2) #28
  ret i64 4
}